target datalayout = "e-m:e-p270:32:32-p271:32:32-p272:64:64-i64:64-i128:128-f80:128-n8:16:32:64-S128"
target triple = "x86_64-pc-linux-gnu"

%struct.jv = type { i8, i8, i16, i32, %union.anon }
%union.anon = type { ptr }
%struct.jv_refcnt = type { i32 }
%struct.jvp_array = type { %struct.jv_refcnt, i32, i32, [0 x %struct.jv] }
%struct.jvp_string = type { %struct.jv_refcnt, i32, i32, i32, [0 x i8] }

; Function Attrs: nounwind uwtable
define internal i32 @jvp_array_length(i64 %0, ptr %1) #0 {
  %3 = alloca %struct.jv, align 8
  %4 = getelementptr inbounds nuw { i64, ptr }, ptr %3, i32 0, i32 0
  store i64 %0, ptr %4, align 8
  %5 = getelementptr inbounds nuw { i64, ptr }, ptr %3, i32 0, i32 1
  store ptr %1, ptr %5, align 8
  %6 = getelementptr inbounds nuw %struct.jv, ptr %3, i32 0, i32 3
  %7 = load i32, ptr %6, align 4, !tbaa !19
  ret i32 %7
}

; Function Attrs: nounwind uwtable
define internal ptr @jvp_array_alloc(i32 noundef %0) #0 {
  %2 = alloca i32, align 4
  %3 = alloca ptr, align 8
  store i32 %0, ptr %2, align 4, !tbaa !10
  call void @llvm.lifetime.start.p0(i64 8, ptr %3) #11
  %4 = load i32, ptr %2, align 4, !tbaa !10
  %5 = zext i32 %4 to i64
  %6 = mul i64 16, %5
  %7 = add i64 16, %6
  %8 = call ptr @jv_mem_alloc(i64 noundef %7)
  store ptr %8, ptr %3, align 8, !tbaa !14
  %9 = load ptr, ptr %3, align 8, !tbaa !14
  %10 = getelementptr inbounds nuw %struct.jvp_array, ptr %9, i32 0, i32 0
  %11 = getelementptr inbounds nuw %struct.jv_refcnt, ptr %10, i32 0, i32 0
  store i32 1, ptr %11, align 8, !tbaa !68
  %12 = load ptr, ptr %3, align 8, !tbaa !14
  %13 = getelementptr inbounds nuw %struct.jvp_array, ptr %12, i32 0, i32 1
  store i32 0, ptr %13, align 4, !tbaa !10
  %14 = load i32, ptr %2, align 4, !tbaa !10
  %15 = load ptr, ptr %3, align 8, !tbaa !14
  %16 = getelementptr inbounds nuw %struct.jvp_array, ptr %15, i32 0, i32 2
  store i32 %14, ptr %16, align 8, !tbaa !10
  %17 = load ptr, ptr %3, align 8, !tbaa !14
  call void @llvm.lifetime.end.p0(i64 8, ptr %3) #11
  ret ptr %17
}

; Function Attrs: nounwind uwtable
define dso_local i32 @jv_array_length(i64 %0, ptr %1) #0 {
  %3 = alloca %struct.jv, align 8
  %4 = alloca i32, align 4
  %5 = getelementptr inbounds nuw { i64, ptr }, ptr %3, i32 0, i32 0
  store i64 %0, ptr %5, align 8
  %6 = getelementptr inbounds nuw { i64, ptr }, ptr %3, i32 0, i32 1
  store ptr %1, ptr %6, align 8
  call void @llvm.lifetime.start.p0(i64 4, ptr %4) #11
  %7 = getelementptr inbounds nuw { i64, ptr }, ptr %3, i32 0, i32 0
  %8 = load i64, ptr %7, align 8
  %9 = getelementptr inbounds nuw { i64, ptr }, ptr %3, i32 0, i32 1
  %10 = load ptr, ptr %9, align 8
  %11 = call i32 @jvp_array_length(i64 %8, ptr %10)
  store i32 %11, ptr %4, align 4, !tbaa !10
  %12 = getelementptr inbounds nuw { i64, ptr }, ptr %3, i32 0, i32 0
  %13 = load i64, ptr %12, align 8
  %14 = getelementptr inbounds nuw { i64, ptr }, ptr %3, i32 0, i32 1
  %15 = load ptr, ptr %14, align 8
  call void @jv_free(i64 %13, ptr %15)
  %16 = load i32, ptr %4, align 4, !tbaa !10
  call void @llvm.lifetime.end.p0(i64 4, ptr %4) #11
  ret i32 %16
}

; Function Attrs: nounwind uwtable
define internal { i64, ptr } @jvp_array_new(i32 noundef %0) #0 {
  %2 = alloca %struct.jv, align 8
  %3 = alloca i32, align 4
  store i32 %0, ptr %3, align 4, !tbaa !10
  %4 = getelementptr inbounds nuw %struct.jv, ptr %2, i32 0, i32 0
  store i8 -122, ptr %4, align 8, !tbaa !4
  %5 = getelementptr inbounds nuw %struct.jv, ptr %2, i32 0, i32 1
  store i8 0, ptr %5, align 1, !tbaa !17
  %6 = getelementptr inbounds nuw %struct.jv, ptr %2, i32 0, i32 2
  store i16 0, ptr %6, align 2, !tbaa !18
  %7 = getelementptr inbounds nuw %struct.jv, ptr %2, i32 0, i32 3
  store i32 0, ptr %7, align 4, !tbaa !19
  %8 = getelementptr inbounds nuw %struct.jv, ptr %2, i32 0, i32 4
  %9 = load i32, ptr %3, align 4, !tbaa !10
  %10 = call ptr @jvp_array_alloc(i32 noundef %9)
  %11 = getelementptr inbounds nuw %struct.jvp_array, ptr %10, i32 0, i32 0
  store ptr %11, ptr %8, align 8, !tbaa !12
  %12 = load { i64, ptr }, ptr %2, align 8
  ret { i64, ptr } %12
}

; Function Attrs: nounwind uwtable
define internal i32 @jvp_string_length(ptr noundef %0) #0 {
  %2 = alloca ptr, align 8
  store ptr %0, ptr %2, align 8, !tbaa !14
  %3 = load ptr, ptr %2, align 8, !tbaa !14
  %4 = getelementptr inbounds nuw %struct.jvp_string, ptr %3, i32 0, i32 2
  %5 = load i32, ptr %4, align 4, !tbaa !10
  %6 = lshr i32 %5, 1
  ret i32 %6
}

; Function Attrs: nounwind uwtable
define internal void @jvp_refcnt_inc(ptr noundef %0) #0 {
  %2 = alloca ptr, align 8
  store ptr %0, ptr %2, align 8, !tbaa !83
  %3 = load ptr, ptr %2, align 8, !tbaa !83
  %4 = getelementptr inbounds nuw %struct.jv_refcnt, ptr %3, i32 0, i32 0
  %5 = load i32, ptr %4, align 4, !tbaa !68
  %6 = add nsw i32 %5, 1
  store i32 %6, ptr %4, align 4, !tbaa !68
  ret void
}

; Function Attrs: nounwind uwtable
define internal ptr @jvp_string_ptr(i64 %0, ptr %1) #0 {
  %3 = alloca %struct.jv, align 8
  %4 = getelementptr inbounds nuw { i64, ptr }, ptr %3, i32 0, i32 0
  store i64 %0, ptr %4, align 8
  %5 = getelementptr inbounds nuw { i64, ptr }, ptr %3, i32 0, i32 1
  store ptr %1, ptr %5, align 8
  %6 = getelementptr inbounds nuw %struct.jv, ptr %3, i32 0, i32 4
  %7 = load ptr, ptr %6, align 8, !tbaa !12
  ret ptr %7
}

; Function Attrs: nounwind uwtable
define dso_local { i64, ptr } @jv_array_append(i64 %0, ptr %1, i64 %2, ptr %3) #0 {
  %5 = alloca %struct.jv, align 8
  %6 = alloca %struct.jv, align 8
  %7 = alloca %struct.jv, align 8
  %8 = alloca %struct.jv, align 8
  %9 = getelementptr inbounds nuw { i64, ptr }, ptr %6, i32 0, i32 0
  store i64 %0, ptr %9, align 8
  %10 = getelementptr inbounds nuw { i64, ptr }, ptr %6, i32 0, i32 1
  store ptr %1, ptr %10, align 8
  %11 = getelementptr inbounds nuw { i64, ptr }, ptr %7, i32 0, i32 0
  store i64 %2, ptr %11, align 8
  %12 = getelementptr inbounds nuw { i64, ptr }, ptr %7, i32 0, i32 1
  store ptr %3, ptr %12, align 8
  %13 = getelementptr inbounds nuw { i64, ptr }, ptr %6, i32 0, i32 0
  %14 = load i64, ptr %13, align 8
  %15 = getelementptr inbounds nuw { i64, ptr }, ptr %6, i32 0, i32 1
  %16 = load ptr, ptr %15, align 8
  %17 = call { i64, ptr } @jv_copy(i64 %14, ptr %16)
  %18 = getelementptr inbounds nuw { i64, ptr }, ptr %8, i32 0, i32 0
  %19 = extractvalue { i64, ptr } %17, 0
  store i64 %19, ptr %18, align 8
  %20 = getelementptr inbounds nuw { i64, ptr }, ptr %8, i32 0, i32 1
  %21 = extractvalue { i64, ptr } %17, 1
  store ptr %21, ptr %20, align 8
  %22 = getelementptr inbounds nuw { i64, ptr }, ptr %8, i32 0, i32 0
  %23 = load i64, ptr %22, align 8
  %24 = getelementptr inbounds nuw { i64, ptr }, ptr %8, i32 0, i32 1
  %25 = load ptr, ptr %24, align 8
  %26 = call i32 @jv_array_length(i64 %23, ptr %25)
  %27 = getelementptr inbounds nuw { i64, ptr }, ptr %6, i32 0, i32 0
  %28 = load i64, ptr %27, align 8
  %29 = getelementptr inbounds nuw { i64, ptr }, ptr %6, i32 0, i32 1
  %30 = load ptr, ptr %29, align 8
  %31 = getelementptr inbounds nuw { i64, ptr }, ptr %7, i32 0, i32 0
  %32 = load i64, ptr %31, align 8
  %33 = getelementptr inbounds nuw { i64, ptr }, ptr %7, i32 0, i32 1
  %34 = load ptr, ptr %33, align 8
  %35 = call { i64, ptr } @jv_array_set(i64 %28, ptr %30, i32 noundef %26, i64 %32, ptr %34)
  %36 = getelementptr inbounds nuw { i64, ptr }, ptr %5, i32 0, i32 0
  %37 = extractvalue { i64, ptr } %35, 0
  store i64 %37, ptr %36, align 8
  %38 = getelementptr inbounds nuw { i64, ptr }, ptr %5, i32 0, i32 1
  %39 = extractvalue { i64, ptr } %35, 1
  store ptr %39, ptr %38, align 8
  %40 = load { i64, ptr }, ptr %5, align 8
  ret { i64, ptr } %40
}

; Function Attrs: nounwind uwtable
define dso_local { i64, ptr } @jv_number(double noundef %0) #0 {
  %2 = alloca %struct.jv, align 8
  %3 = alloca double, align 8
  store double %0, ptr %3, align 8, !tbaa !34
  %4 = getelementptr inbounds nuw %struct.jv, ptr %2, i32 0, i32 0
  store i8 4, ptr %4, align 8, !tbaa !4
  %5 = getelementptr inbounds nuw %struct.jv, ptr %2, i32 0, i32 1
  store i8 0, ptr %5, align 1, !tbaa !17
  %6 = getelementptr inbounds nuw %struct.jv, ptr %2, i32 0, i32 2
  store i16 0, ptr %6, align 2, !tbaa !18
  %7 = getelementptr inbounds nuw %struct.jv, ptr %2, i32 0, i32 3
  store i32 0, ptr %7, align 4, !tbaa !19
  %8 = getelementptr inbounds nuw %struct.jv, ptr %2, i32 0, i32 4
  %9 = load double, ptr %3, align 8, !tbaa !34
  store double %9, ptr %8, align 8, !tbaa !12
  %10 = load { i64, ptr }, ptr %2, align 8
  ret { i64, ptr } %10
}

; Function Attrs: nounwind uwtable
define dso_local { i64, ptr } @jv_array_sized(i32 noundef %0) #0 {
  %2 = alloca %struct.jv, align 8
  %3 = alloca i32, align 4
  store i32 %0, ptr %3, align 4, !tbaa !10
  %4 = load i32, ptr %3, align 4, !tbaa !10
  %5 = call { i64, ptr } @jvp_array_new(i32 noundef %4)
  %6 = getelementptr inbounds nuw { i64, ptr }, ptr %2, i32 0, i32 0
  %7 = extractvalue { i64, ptr } %5, 0
  store i64 %7, ptr %6, align 8
  %8 = getelementptr inbounds nuw { i64, ptr }, ptr %2, i32 0, i32 1
  %9 = extractvalue { i64, ptr } %5, 1
  store ptr %9, ptr %8, align 8
  %10 = load { i64, ptr }, ptr %2, align 8
  ret { i64, ptr } %10
}

; Function Attrs: nounwind uwtable
define dso_local i32 @jv_string_length_bytes(i64 %0, ptr %1) #0 {
  %3 = alloca %struct.jv, align 8
  %4 = alloca i32, align 4
  %5 = getelementptr inbounds nuw { i64, ptr }, ptr %3, i32 0, i32 0
  store i64 %0, ptr %5, align 8
  %6 = getelementptr inbounds nuw { i64, ptr }, ptr %3, i32 0, i32 1
  store ptr %1, ptr %6, align 8
  call void @llvm.lifetime.start.p0(i64 4, ptr %4) #11
  %7 = getelementptr inbounds nuw { i64, ptr }, ptr %3, i32 0, i32 0
  %8 = load i64, ptr %7, align 8
  %9 = getelementptr inbounds nuw { i64, ptr }, ptr %3, i32 0, i32 1
  %10 = load ptr, ptr %9, align 8
  %11 = call ptr @jvp_string_ptr(i64 %8, ptr %10)
  %12 = call i32 @jvp_string_length(ptr noundef %11)
  store i32 %12, ptr %4, align 4, !tbaa !10
  %13 = getelementptr inbounds nuw { i64, ptr }, ptr %3, i32 0, i32 0
  %14 = load i64, ptr %13, align 8
  %15 = getelementptr inbounds nuw { i64, ptr }, ptr %3, i32 0, i32 1
  %16 = load ptr, ptr %15, align 8
  call void @jv_free(i64 %14, ptr %16)
  %17 = load i32, ptr %4, align 4, !tbaa !10
  call void @llvm.lifetime.end.p0(i64 4, ptr %4) #11
  ret i32 %17
}

; Function Attrs: nounwind uwtable
define dso_local { i64, ptr } @jv_copy(i64 %0, ptr %1) #0 {
  %3 = alloca %struct.jv, align 8
  %4 = alloca %struct.jv, align 8
  %5 = getelementptr inbounds nuw { i64, ptr }, ptr %4, i32 0, i32 0
  store i64 %0, ptr %5, align 8
  %6 = getelementptr inbounds nuw { i64, ptr }, ptr %4, i32 0, i32 1
  store ptr %1, ptr %6, align 8
  %7 = getelementptr inbounds nuw %struct.jv, ptr %4, i32 0, i32 0
  %8 = load i8, ptr %7, align 8, !tbaa !4
  %9 = zext i8 %8 to i32
  %10 = and i32 %9, 128
  %11 = icmp ne i32 %10, 0
  br i1 %11, label %12, label %15

12:                                               ; preds = %2
  %13 = getelementptr inbounds nuw %struct.jv, ptr %4, i32 0, i32 4
  %14 = load ptr, ptr %13, align 8, !tbaa !12
  call void @jvp_refcnt_inc(ptr noundef %14)
  br label %15

15:                                               ; preds = %12, %2
  call void @llvm.memcpy.p0.p0.i64(ptr align 8 %3, ptr align 8 %4, i64 16, i1 false), !tbaa.struct !11
  %16 = load { i64, ptr }, ptr %3, align 8
  ret { i64, ptr } %16
}

; Function Attrs: nounwind uwtable
define dso_local ptr @jv_string_value(i64 %0, ptr %1) #0 {
  %3 = alloca %struct.jv, align 8
  %4 = getelementptr inbounds nuw { i64, ptr }, ptr %3, i32 0, i32 0
  store i64 %0, ptr %4, align 8
  %5 = getelementptr inbounds nuw { i64, ptr }, ptr %3, i32 0, i32 1
  store ptr %1, ptr %5, align 8
  %6 = getelementptr inbounds nuw { i64, ptr }, ptr %3, i32 0, i32 0
  %7 = load i64, ptr %6, align 8
  %8 = getelementptr inbounds nuw { i64, ptr }, ptr %3, i32 0, i32 1
  %9 = load ptr, ptr %8, align 8
  %10 = call ptr @jvp_string_ptr(i64 %7, ptr %9)
  %11 = getelementptr inbounds nuw %struct.jvp_string, ptr %10, i32 0, i32 4
  %12 = getelementptr inbounds [0 x i8], ptr %11, i64 0, i64 0
  ret ptr %12
}

; Function Attrs: nounwind uwtable
define dso_local { i64, ptr } @jv_string_explode(i64 %0, ptr %1) #0 {
  %3 = alloca %struct.jv, align 8
  %4 = alloca %struct.jv, align 8
  %5 = alloca ptr, align 8
  %6 = alloca i32, align 4
  %7 = alloca %struct.jv, align 8
  %8 = alloca ptr, align 8
  %9 = alloca i32, align 4
  %10 = alloca %struct.jv, align 8
  %11 = alloca %struct.jv, align 8
  %12 = getelementptr inbounds nuw { i64, ptr }, ptr %4, i32 0, i32 0
  store i64 %0, ptr %12, align 8
  %13 = getelementptr inbounds nuw { i64, ptr }, ptr %4, i32 0, i32 1
  store ptr %1, ptr %13, align 8
  call void @llvm.lifetime.start.p0(i64 8, ptr %5) #11
  %14 = getelementptr inbounds nuw { i64, ptr }, ptr %4, i32 0, i32 0
  %15 = load i64, ptr %14, align 8
  %16 = getelementptr inbounds nuw { i64, ptr }, ptr %4, i32 0, i32 1
  %17 = load ptr, ptr %16, align 8
  %18 = call ptr @jv_string_value(i64 %15, ptr %17)
  store ptr %18, ptr %5, align 8, !tbaa !30
  call void @llvm.lifetime.start.p0(i64 4, ptr %6) #11
  %19 = getelementptr inbounds nuw { i64, ptr }, ptr %4, i32 0, i32 0
  %20 = load i64, ptr %19, align 8
  %21 = getelementptr inbounds nuw { i64, ptr }, ptr %4, i32 0, i32 1
  %22 = load ptr, ptr %21, align 8
  %23 = call { i64, ptr } @jv_copy(i64 %20, ptr %22)
  %24 = getelementptr inbounds nuw { i64, ptr }, ptr %7, i32 0, i32 0
  %25 = extractvalue { i64, ptr } %23, 0
  store i64 %25, ptr %24, align 8
  %26 = getelementptr inbounds nuw { i64, ptr }, ptr %7, i32 0, i32 1
  %27 = extractvalue { i64, ptr } %23, 1
  store ptr %27, ptr %26, align 8
  %28 = getelementptr inbounds nuw { i64, ptr }, ptr %7, i32 0, i32 0
  %29 = load i64, ptr %28, align 8
  %30 = getelementptr inbounds nuw { i64, ptr }, ptr %7, i32 0, i32 1
  %31 = load ptr, ptr %30, align 8
  %32 = call i32 @jv_string_length_bytes(i64 %29, ptr %31)
  store i32 %32, ptr %6, align 4, !tbaa !10
  call void @llvm.lifetime.start.p0(i64 8, ptr %8) #11
  %33 = load ptr, ptr %5, align 8, !tbaa !30
  %34 = load i32, ptr %6, align 4, !tbaa !10
  %35 = sext i32 %34 to i64
  %36 = getelementptr inbounds i8, ptr %33, i64 %35
  store ptr %36, ptr %8, align 8, !tbaa !30
  %37 = load i32, ptr %6, align 4, !tbaa !10
  %38 = call { i64, ptr } @jv_array_sized(i32 noundef %37)
  %39 = getelementptr inbounds nuw { i64, ptr }, ptr %3, i32 0, i32 0
  %40 = extractvalue { i64, ptr } %38, 0
  store i64 %40, ptr %39, align 8
  %41 = getelementptr inbounds nuw { i64, ptr }, ptr %3, i32 0, i32 1
  %42 = extractvalue { i64, ptr } %38, 1
  store ptr %42, ptr %41, align 8
  call void @llvm.lifetime.start.p0(i64 4, ptr %9) #11
  br label %43

43:                                               ; preds = %48, %2
  %44 = load ptr, ptr %5, align 8, !tbaa !30
  %45 = load ptr, ptr %8, align 8, !tbaa !30
  %46 = call ptr @jvp_utf8_next(ptr noundef %44, ptr noundef %45, ptr noundef %9)
  store ptr %46, ptr %5, align 8, !tbaa !30
  %47 = icmp ne ptr %46, null
  br i1 %47, label %48, label %69

48:                                               ; preds = %43
  call void @llvm.lifetime.start.p0(i64 16, ptr %10) #11
  %49 = load i32, ptr %9, align 4, !tbaa !10
  %50 = sitofp i32 %49 to double
  %51 = call { i64, ptr } @jv_number(double noundef %50)
  %52 = getelementptr inbounds nuw { i64, ptr }, ptr %11, i32 0, i32 0
  %53 = extractvalue { i64, ptr } %51, 0
  store i64 %53, ptr %52, align 8
  %54 = getelementptr inbounds nuw { i64, ptr }, ptr %11, i32 0, i32 1
  %55 = extractvalue { i64, ptr } %51, 1
  store ptr %55, ptr %54, align 8
  %56 = getelementptr inbounds nuw { i64, ptr }, ptr %3, i32 0, i32 0
  %57 = load i64, ptr %56, align 8
  %58 = getelementptr inbounds nuw { i64, ptr }, ptr %3, i32 0, i32 1
  %59 = load ptr, ptr %58, align 8
  %60 = getelementptr inbounds nuw { i64, ptr }, ptr %11, i32 0, i32 0
  %61 = load i64, ptr %60, align 8
  %62 = getelementptr inbounds nuw { i64, ptr }, ptr %11, i32 0, i32 1
  %63 = load ptr, ptr %62, align 8
  %64 = call { i64, ptr } @jv_array_append(i64 %57, ptr %59, i64 %61, ptr %63)
  %65 = getelementptr inbounds nuw { i64, ptr }, ptr %10, i32 0, i32 0
  %66 = extractvalue { i64, ptr } %64, 0
  store i64 %66, ptr %65, align 8
  %67 = getelementptr inbounds nuw { i64, ptr }, ptr %10, i32 0, i32 1
  %68 = extractvalue { i64, ptr } %64, 1
  store ptr %68, ptr %67, align 8
  call void @llvm.memcpy.p0.p0.i64(ptr align 8 %3, ptr align 8 %10, i64 16, i1 false), !tbaa.struct !11
  call void @llvm.lifetime.end.p0(i64 16, ptr %10) #11
  br label %43, !llvm.loop !61

69:                                               ; preds = %43
  %70 = getelementptr inbounds nuw { i64, ptr }, ptr %4, i32 0, i32 0
  %71 = load i64, ptr %70, align 8
  %72 = getelementptr inbounds nuw { i64, ptr }, ptr %4, i32 0, i32 1
  %73 = load ptr, ptr %72, align 8
  call void @jv_free(i64 %71, ptr %73)
  call void @llvm.lifetime.end.p0(i64 4, ptr %9) #11
  call void @llvm.lifetime.end.p0(i64 8, ptr %8) #11
  call void @llvm.lifetime.end.p0(i64 4, ptr %6) #11
  call void @llvm.lifetime.end.p0(i64 8, ptr %5) #11
  %74 = load { i64, ptr }, ptr %3, align 8
  ret { i64, ptr } %74
}