; Function Attrs: nounwind uwtable
define dso_local { i64, ptr } @jv_string_explode(i64 %0, ptr %1) local_unnamed_addr #2 {
  %3 = alloca i32, align 4
  %4 = getelementptr inbounds nuw i8, ptr %1, i64 16
  %5 = and i64 %0, 128
  %.not.i = icmp eq i64 %5, 0
  br i1 %.not.i, label %jv_copy.exit, label %6

6:                                                ; preds = %2
  %7 = load i32, ptr %1, align 4, !tbaa !9
  %8 = add nsw i32 %7, 1
  store i32 %8, ptr %1, align 4, !tbaa !9
  br label %jv_copy.exit

jv_copy.exit:                                     ; preds = %2, %6
  %9 = getelementptr i8, ptr %1, i64 8
  %.val.i = load i32, ptr %9, align 4, !tbaa !4
  %10 = lshr i32 %.val.i, 1
  tail call void @jv_free(i64 %0, ptr %1)
  %11 = zext nneg i32 %10 to i64
  %12 = getelementptr inbounds nuw i8, ptr %4, i64 %11
  %13 = shl nuw nsw i64 %11, 4
  %14 = add nuw nsw i64 %13, 16
  %15 = tail call ptr @jv_mem_alloc(i64 noundef %14) #25
  store i32 1, ptr %15, align 8, !tbaa !9
  %16 = getelementptr inbounds nuw i8, ptr %15, i64 4
  store i32 0, ptr %16, align 4, !tbaa !4
  %17 = getelementptr inbounds nuw i8, ptr %15, i64 8
  store i32 %10, ptr %17, align 8, !tbaa !4
  call void @llvm.lifetime.start.p0(i64 4, ptr nonnull %3) #25
  %18 = call ptr @jvp_utf8_next(ptr noundef nonnull %4, ptr noundef nonnull %12, ptr noundef nonnull %3) #25
  %.not18 = icmp eq ptr %18, null
  br i1 %.not18, label %._crit_edge, label %.lr.ph

.lr.ph:                                           ; preds = %jv_copy.exit, %jv_array_append.exit
  %19 = phi ptr [ %30, %jv_array_append.exit ], [ %18, %jv_copy.exit ]
  %.sroa.415.020 = phi ptr [ %.sroa.415.0, %jv_array_append.exit ], [ %15, %jv_copy.exit ]
  %.sroa.013.019 = phi i64 [ %29, %jv_array_append.exit ], [ 134, %jv_copy.exit ]
  %20 = load i32, ptr %3, align 4, !tbaa !4
  %21 = sitofp i32 %20 to double
  %22 = bitcast double %21 to i64
  %23 = inttoptr i64 %22 to ptr
  %24 = and i64 %.sroa.013.019, 128
  %.not.i.i = icmp eq i64 %24, 0
  br i1 %.not.i.i, label %jv_array_append.exit, label %25

25:                                               ; preds = %.lr.ph
  %26 = load i32, ptr %.sroa.415.020, align 4, !tbaa !9
  %27 = add nsw i32 %26, 1
  store i32 %27, ptr %.sroa.415.020, align 4, !tbaa !9
  br label %jv_array_append.exit

jv_array_append.exit:                             ; preds = %.lr.ph, %25
  %.sroa.1.0.extract.shift.i.i.i = lshr i64 %.sroa.013.019, 32
  %.sroa.1.0.extract.trunc.i.i.i = trunc nuw i64 %.sroa.1.0.extract.shift.i.i.i to i32
  call void @jv_free(i64 %.sroa.013.019, ptr %.sroa.415.020)
  %28 = call { i64, ptr } @jv_array_set(i64 %.sroa.013.019, ptr %.sroa.415.020, i32 noundef %.sroa.1.0.extract.trunc.i.i.i, i64 4, ptr %23)
  %29 = extractvalue { i64, ptr } %28, 0
  %.sroa.415.0 = extractvalue { i64, ptr } %28, 1
  %30 = call ptr @jvp_utf8_next(ptr noundef nonnull %19, ptr noundef nonnull %12, ptr noundef nonnull %3) #25
  %.not = icmp eq ptr %30, null
  br i1 %.not, label %._crit_edge, label %.lr.ph, !llvm.loop !53

._crit_edge:                                      ; preds = %jv_array_append.exit, %jv_copy.exit
  %.sroa.013.0.lcssa = phi i64 [ 134, %jv_copy.exit ], [ %29, %jv_array_append.exit ]
  %.sroa.415.0.lcssa = phi ptr [ %15, %jv_copy.exit ], [ %.sroa.415.0, %jv_array_append.exit ]
  call void @jv_free(i64 %0, ptr nonnull %1)
  call void @llvm.lifetime.end.p0(i64 4, ptr nonnull %3) #25
  %.fca.0.insert = insertvalue { i64, ptr } poison, i64 %.sroa.013.0.lcssa, 0
  %.fca.1.insert = insertvalue { i64, ptr } %.fca.0.insert, ptr %.sroa.415.0.lcssa, 1
  ret { i64, ptr } %.fca.1.insert
}